target datalayout = "e-m:e-p270:32:32-p271:32:32-p272:64:64-i64:64-i128:128-f80:128-n8:16:32:64-S128"
target triple = "x86_64-pc-linux-gnu"

%"class.google::protobuf::MessageLite" = type { ptr, %"class.google::protobuf::internal::InternalMetadata" }
%"class.google::protobuf::internal::InternalMetadata" = type { i64 }
%"class.google::protobuf::internal::CachedSize" = type { %"struct.std::atomic" }
%"struct.std::atomic" = type { %"struct.std::__atomic_base" }
%"struct.std::__atomic_base" = type { i32 }

; Function Attrs: noinline noreturn nounwind uwtable
define linkonce_odr hidden void @__clang_call_terminate(ptr noundef %0) #13 comdat {
  %2 = call ptr @__cxa_begin_catch(ptr %0) #3
  call void @_ZSt9terminatev() #23
  unreachable
}

; Function Attrs: mustprogress nounwind uwtable
define linkonce_odr noundef i32 @_ZStanSt12memory_orderSt23__memory_order_modifier(i32 noundef %0, i32 noundef %1) #7 comdat {
  %3 = alloca i32, align 4
  %4 = alloca i32, align 4
  store i32 %0, ptr %3, align 4, !tbaa !103
  store i32 %1, ptr %4, align 4, !tbaa !105
  %5 = load i32, ptr %3, align 4, !tbaa !103
  %6 = load i32, ptr %4, align 4, !tbaa !105
  %7 = and i32 %5, %6
  ret i32 %7
}

; Function Attrs: alwaysinline mustprogress nounwind uwtable
define linkonce_odr hidden void @_ZNSt13__atomic_baseIiE5storeEiSt12memory_order(ptr noundef nonnull align 4 dereferenceable(4) %0, i32 noundef %1, i32 noundef %2) #12 comdat align 2 personality ptr @__gxx_personality_v0 {
  %4 = alloca ptr, align 8
  %5 = alloca i32, align 4
  %6 = alloca i32, align 4
  %7 = alloca i32, align 4
  %8 = alloca i32, align 4
  store ptr %0, ptr %4, align 8, !tbaa !101
  store i32 %1, ptr %5, align 4, !tbaa !55
  store i32 %2, ptr %6, align 4, !tbaa !103
  %9 = load ptr, ptr %4, align 8
  call void @llvm.lifetime.start.p0(i64 4, ptr %7) #3
  %10 = load i32, ptr %6, align 4, !tbaa !103
  %11 = invoke noundef i32 @_ZStanSt12memory_orderSt23__memory_order_modifier(i32 noundef %10, i32 noundef 65535)
          to label %12 unwind label %32

12:                                               ; preds = %3
  store i32 %11, ptr %7, align 4, !tbaa !103
  br label %13

13:                                               ; preds = %12
  br label %14

14:                                               ; preds = %13
  br label %15

15:                                               ; preds = %14
  br label %16

16:                                               ; preds = %15
  br label %17

17:                                               ; preds = %16
  br label %18

18:                                               ; preds = %17
  br label %19

19:                                               ; preds = %18
  br label %20

20:                                               ; preds = %19
  br label %21

21:                                               ; preds = %20
  %22 = getelementptr inbounds nuw %"struct.std::__atomic_base", ptr %9, i32 0, i32 0
  %23 = load i32, ptr %6, align 4, !tbaa !103
  %24 = load i32, ptr %5, align 4, !tbaa !55
  store i32 %24, ptr %8, align 4, !tbaa !55
  switch i32 %23, label %25 [
    i32 3, label %27
    i32 5, label %29
  ]

25:                                               ; preds = %21
  %26 = load i32, ptr %8, align 4
  store atomic i32 %26, ptr %22 monotonic, align 4
  br label %31

27:                                               ; preds = %21
  %28 = load i32, ptr %8, align 4
  store atomic i32 %28, ptr %22 release, align 4
  br label %31

29:                                               ; preds = %21
  %30 = load i32, ptr %8, align 4
  store atomic i32 %30, ptr %22 seq_cst, align 4
  br label %31

31:                                               ; preds = %29, %27, %25
  call void @llvm.lifetime.end.p0(i64 4, ptr %7) #3
  ret void

32:                                               ; preds = %3
  %33 = landingpad { ptr, i32 }
          catch ptr null
  %34 = extractvalue { ptr, i32 } %33, 0
  call void @__clang_call_terminate(ptr %34) #23
  unreachable
}

; Function Attrs: alwaysinline mustprogress nounwind uwtable
define linkonce_odr hidden noundef zeroext i1 @_ZNK6google8protobuf8internal16InternalMetadata19HasUnknownFieldsTagEv(ptr noundef nonnull align 8 dereferenceable(8) %0) #12 comdat align 2 {
  %2 = alloca ptr, align 8
  store ptr %0, ptr %2, align 8, !tbaa !58
  %3 = load ptr, ptr %2, align 8
  %4 = getelementptr inbounds nuw %"class.google::protobuf::internal::InternalMetadata", ptr %3, i32 0, i32 0
  %5 = load i64, ptr %4, align 8, !tbaa !107
  %6 = and i64 %5, 1
  %7 = icmp ne i64 %6, 0
  ret i1 %7
}

; Function Attrs: mustprogress nounwind uwtable
define linkonce_odr hidden void @_ZN6google8protobuf8internal10CachedSize3SetEi(ptr noundef nonnull align 4 dereferenceable(4) %0, i32 noundef %1) #7 comdat align 2 {
  %3 = alloca ptr, align 8
  %4 = alloca i32, align 4
  store ptr %0, ptr %3, align 8, !tbaa !56
  store i32 %1, ptr %4, align 4, !tbaa !55
  %5 = load ptr, ptr %3, align 8
  %6 = getelementptr inbounds nuw %"class.google::protobuf::internal::CachedSize", ptr %5, i32 0, i32 0
  %7 = load i32, ptr %4, align 4, !tbaa !55
  call void @_ZNSt13__atomic_baseIiE5storeEiSt12memory_order(ptr noundef nonnull align 4 dereferenceable(4) %6, i32 noundef %7, i32 noundef 0) #3
  ret void
}

; Function Attrs: inlinehint mustprogress nounwind uwtable
define linkonce_odr hidden noundef i32 @_ZN6google8protobuf8internal12ToCachedSizeEm(i64 noundef %0) #6 comdat {
  %2 = alloca i64, align 8
  store i64 %0, ptr %2, align 8, !tbaa !53
  %3 = load i64, ptr %2, align 8, !tbaa !53
  %4 = trunc i64 %3 to i32
  ret i32 %4
}

; Function Attrs: alwaysinline mustprogress uwtable
define linkonce_odr hidden noundef zeroext i1 @_ZNK6google8protobuf8internal16InternalMetadata19have_unknown_fieldsEv(ptr noundef nonnull align 8 dereferenceable(8) %0) #8 comdat align 2 {
  %2 = alloca ptr, align 8
  store ptr %0, ptr %2, align 8, !tbaa !58
  %3 = load ptr, ptr %2, align 8
  %4 = call noundef zeroext i1 @_ZNK6google8protobuf8internal16InternalMetadata19HasUnknownFieldsTagEv(ptr noundef nonnull align 8 dereferenceable(8) %3)
  ret i1 %4
}

; Function Attrs: mustprogress uwtable
define hidden noundef i64 @_ZNK6google8protobuf7Message29MaybeComputeUnknownFieldsSizeEmPNS0_8internal10CachedSizeE(ptr noundef nonnull align 8 dereferenceable(16) %0, i64 noundef %1, ptr noundef %2) #4 align 2 {
  %4 = alloca i64, align 8
  %5 = alloca ptr, align 8
  %6 = alloca i64, align 8
  %7 = alloca ptr, align 8
  store ptr %0, ptr %5, align 8, !tbaa !3
  store i64 %1, ptr %6, align 8, !tbaa !53
  store ptr %2, ptr %7, align 8, !tbaa !56
  %8 = load ptr, ptr %5, align 8
  %9 = getelementptr inbounds nuw %"class.google::protobuf::MessageLite", ptr %8, i32 0, i32 1
  %10 = call noundef zeroext i1 @_ZNK6google8protobuf8internal16InternalMetadata19have_unknown_fieldsEv(ptr noundef nonnull align 8 dereferenceable(8) %9)
  %11 = zext i1 %10 to i64
  %12 = call i64 @llvm.expect.i64(i64 %11, i64 0)
  %13 = icmp ne i64 %12, 0
  br i1 %13, label %14, label %18

14:                                               ; preds = %3
  %15 = load i64, ptr %6, align 8, !tbaa !53
  %16 = load ptr, ptr %7, align 8, !tbaa !56
  %17 = call noundef i64 @_ZNK6google8protobuf7Message24ComputeUnknownFieldsSizeEmPNS0_8internal10CachedSizeE(ptr noundef nonnull align 8 dereferenceable(16) %8, i64 noundef %15, ptr noundef %16)
  store i64 %17, ptr %4, align 8
  br label %23

18:                                               ; preds = %3
  %19 = load ptr, ptr %7, align 8, !tbaa !56
  %20 = load i64, ptr %6, align 8, !tbaa !53
  %21 = call noundef i32 @_ZN6google8protobuf8internal12ToCachedSizeEm(i64 noundef %20)
  call void @_ZN6google8protobuf8internal10CachedSize3SetEi(ptr noundef nonnull align 4 dereferenceable(4) %19, i32 noundef %21)
  %22 = load i64, ptr %6, align 8, !tbaa !53
  store i64 %22, ptr %4, align 8
  br label %23

23:                                               ; preds = %18, %14
  %24 = load i64, ptr %4, align 8
  ret i64 %24
}