; Function Attrs: mustprogress uwtable
define hidden noundef i64 @_ZNK6google8protobuf7Message29MaybeComputeUnknownFieldsSizeEmPNS0_8internal10CachedSizeE(ptr noundef nonnull readonly align 8 captures(none) dereferenceable(16) %0, i64 noundef %1, ptr noundef writeonly captures(none) %2) local_unnamed_addr #3 align 2 personality ptr @__gxx_personality_v0 {
  %4 = getelementptr inbounds nuw i8, ptr %0, i64 8
  %5 = load i64, ptr %4, align 8, !tbaa !47
  %6 = and i64 %5, 1
  %.not = icmp eq i64 %6, 0
  br i1 %.not, label %9, label %7, !prof !49

7:                                                ; preds = %3
  %8 = tail call noundef i64 @_ZNK6google8protobuf7Message24ComputeUnknownFieldsSizeEmPNS0_8internal10CachedSizeE(ptr noundef nonnull align 8 dereferenceable(16) %0, i64 noundef %1, ptr noundef %2)
  br label %11

9:                                                ; preds = %3
  %10 = trunc i64 %1 to i32
  store atomic i32 %10, ptr %2 monotonic, align 4
  br label %11

11:                                               ; preds = %9, %7
  %.0 = phi i64 [ %8, %7 ], [ %1, %9 ]
  ret i64 %.0
}